target datalayout = "e-m:e-p270:32:32-p271:32:32-p272:64:64-i64:64-i128:128-f80:128-n8:16:32:64-S128"
target triple = "x86_64-pc-linux-gnu"

%struct.ma_allocation_callbacks = type { ptr, ptr, ptr, ptr }
%struct.ma_data_source_base = type { ptr, i64, i64, i64, i64, ptr, ptr, ptr, i32 }
%struct.ma_audio_buffer_ref = type { %struct.ma_data_source_base, i32, i32, i32, i64, i64, ptr }
%struct.ma_audio_buffer = type { %struct.ma_audio_buffer_ref, %struct.ma_allocation_callbacks, i32, [1 x i8] }

; Function Attrs: nounwind uwtable
define hidden i32 @ma_audio_buffer_ref_at_end(ptr noundef %0) #0 {
  %2 = alloca i32, align 4
  %3 = alloca ptr, align 8
  store ptr %0, ptr %3, align 8
  %4 = load ptr, ptr %3, align 8
  %5 = icmp eq ptr %4, null
  br i1 %5, label %6, label %7

6:                                                ; preds = %1
  store i32 0, ptr %2, align 4
  br label %16

7:                                                ; preds = %1
  %8 = load ptr, ptr %3, align 8
  %9 = getelementptr inbounds nuw %struct.ma_audio_buffer_ref, ptr %8, i32 0, i32 4
  %10 = load i64, ptr %9, align 8
  %11 = load ptr, ptr %3, align 8
  %12 = getelementptr inbounds nuw %struct.ma_audio_buffer_ref, ptr %11, i32 0, i32 5
  %13 = load i64, ptr %12, align 8
  %14 = icmp eq i64 %10, %13
  %15 = zext i1 %14 to i32
  store i32 %15, ptr %2, align 4
  br label %16

16:                                               ; preds = %7, %6
  %17 = load i32, ptr %2, align 4
  ret i32 %17
}

; Function Attrs: nounwind uwtable
define hidden i32 @ma_audio_buffer_at_end(ptr noundef %0) #0 {
  %2 = alloca i32, align 4
  %3 = alloca ptr, align 8
  store ptr %0, ptr %3, align 8
  %4 = load ptr, ptr %3, align 8
  %5 = icmp eq ptr %4, null
  br i1 %5, label %6, label %7

6:                                                ; preds = %1
  store i32 0, ptr %2, align 4
  br label %11

7:                                                ; preds = %1
  %8 = load ptr, ptr %3, align 8
  %9 = getelementptr inbounds nuw %struct.ma_audio_buffer, ptr %8, i32 0, i32 0
  %10 = call i32 @ma_audio_buffer_ref_at_end(ptr noundef %9)
  store i32 %10, ptr %2, align 4
  br label %11

11:                                               ; preds = %7, %6
  %12 = load i32, ptr %2, align 4
  ret i32 %12
}