; Function Attrs: mustprogress nofree norecurse nosync nounwind willreturn memory(argmem: read) uwtable
define hidden range(i32 0, 2) i32 @ma_audio_buffer_at_end(ptr noundef readonly captures(address_is_null) %0) local_unnamed_addr #17 {
  %2 = icmp eq ptr %0, null
  br i1 %2, label %9, label %ma_audio_buffer_ref_at_end.exit

ma_audio_buffer_ref_at_end.exit:                  ; preds = %1
  %3 = getelementptr inbounds nuw i8, ptr %0, i64 88
  %4 = load i64, ptr %3, align 8
  %5 = getelementptr inbounds nuw i8, ptr %0, i64 96
  %6 = load i64, ptr %5, align 8
  %7 = icmp eq i64 %4, %6
  %8 = zext i1 %7 to i32
  br label %9

9:                                                ; preds = %1, %ma_audio_buffer_ref_at_end.exit
  %.0 = phi i32 [ %8, %ma_audio_buffer_ref_at_end.exit ], [ 0, %1 ]
  ret i32 %.0
}